; Function Attrs: mustprogress nounwind uwtable
define hidden noundef ptr @_ZNK11CastX2PNode5ValueEP8PhaseGVN(ptr nocapture noundef nonnull readonly align 8 dereferenceable(52) %0, ptr nocapture noundef readonly %1) unnamed_addr #0 align 2 {
  %3 = getelementptr inbounds i8, ptr %0, i64 8
  %4 = load ptr, ptr %3, align 8
  %5 = getelementptr inbounds i8, ptr %4, i64 8
  %6 = load ptr, ptr %5, align 8
  %7 = getelementptr inbounds i8, ptr %1, i64 40
  %8 = load ptr, ptr %7, align 8
  %9 = getelementptr inbounds i8, ptr %6, i64 40
  %10 = load i32, ptr %9, align 8
  %11 = getelementptr inbounds i8, ptr %8, i64 16
  %12 = load ptr, ptr %11, align 8
  %13 = zext i32 %10 to i64
  %14 = getelementptr inbounds ptr, ptr %12, i64 %13
  %15 = load ptr, ptr %14, align 8
  %16 = load ptr, ptr @_ZN4Type3TOPE, align 8
  %17 = icmp eq ptr %15, %16
  br i1 %17, label %38, label %18

18:                                               ; preds = %2
  %19 = getelementptr inbounds i8, ptr %15, i64 16
  %20 = load i32, ptr %19, align 8
  %21 = icmp eq i32 %20, 4
  br i1 %21, label %22, label %36

22:                                               ; preds = %18
  %23 = load ptr, ptr %15, align 8
  %24 = getelementptr inbounds i8, ptr %23, i64 64
  %25 = load ptr, ptr %24, align 8
  %26 = tail call noundef zeroext i1 %25(ptr noundef nonnull align 8 dereferenceable(20) %15) #6
  br i1 %26, label %27, label %36

27:                                               ; preds = %22
  %28 = getelementptr inbounds i8, ptr %15, i64 24
  %29 = load i64, ptr %28, align 8
  %30 = icmp eq i64 %29, 0
  br i1 %30, label %31, label %33

31:                                               ; preds = %27
  %32 = load ptr, ptr @_ZN7TypePtr8NULL_PTRE, align 8
  br label %38

33:                                               ; preds = %27
  %34 = inttoptr i64 %29 to ptr
  %35 = tail call noundef ptr @_ZN10TypeRawPtr4makeEPh(ptr noundef nonnull %34) #6
  br label %38

36:                                               ; preds = %22, %18
  %37 = load ptr, ptr @_ZN10TypeRawPtr6BOTTOME, align 8
  br label %38

38:                                               ; preds = %2, %36, %33, %31
  %.0 = phi ptr [ %32, %31 ], [ %35, %33 ], [ %37, %36 ], [ %16, %2 ]
  ret ptr %.0
}